target datalayout = "e-m:e-p270:32:32-p271:32:32-p272:64:64-i64:64-i128:128-f80:128-n8:16:32:64-S128"
target triple = "x86_64-pc-linux-gnu"

%struct.Gia_Man_t_ = type { ptr, ptr, i32, i32, i32, i32, ptr, ptr, i32, i32, i32, ptr, ptr, %struct.Vec_Int_t_, %struct.Vec_Int_t_, i32, i32, i32, %struct.Vec_Int_t_, ptr, ptr, ptr, i32, i32, i32, i32, ptr, ptr, ptr, ptr, ptr, i32, i32, ptr, i32, ptr, ptr, ptr, ptr, ptr, ptr, ptr, ptr, ptr, ptr, ptr, ptr, ptr, ptr, ptr, ptr, ptr, ptr, %struct.Vec_Int_t_, %struct.Vec_Int_t_, ptr, ptr, ptr, ptr, ptr, ptr, ptr, ptr, ptr, ptr, ptr, ptr, ptr, ptr, ptr, ptr, ptr, ptr, ptr, ptr, ptr, i32, float, float, ptr, ptr, i32, ptr, ptr, ptr, ptr, ptr, ptr, ptr, ptr, ptr, ptr, ptr, ptr, ptr, ptr, ptr, i64, i64, ptr, ptr, i32, i32, i32, i32, i32, i32, i32, i32, i32, i32, i32, i32, ptr, ptr, ptr, ptr, ptr, ptr, ptr, ptr, i32, i32, i32, ptr, i32, i32, ptr, ptr, ptr, ptr, ptr, ptr, i32, i32, ptr, %struct.Vec_Int_t_, %struct.Vec_Int_t_, %struct.Vec_Int_t_, ptr, ptr, ptr, i32, i32, i32, i32, ptr, ptr, ptr, ptr, ptr }
%struct.Vec_Int_t_ = type { i32, i32, ptr }

@s_Truths6Neg = internal global [6 x i64] [i64 6148914691236517205, i64 3689348814741910323, i64 1085102592571150095, i64 71777214294589695, i64 281470681808895, i64 4294967295], align 16
@s_Truths6 = internal global [6 x i64] [i64 -6148914691236517206, i64 -3689348814741910324, i64 -1085102592571150096, i64 -71777214294589696, i64 -281470681808896, i64 -4294967296], align 16

; Function Attrs: inlinehint nounwind uwtable
define internal i64 @Abc_Tt6Cofactor1(i64 noundef %0, i32 noundef %1) #2 {
  %3 = alloca i64, align 8
  %4 = alloca i32, align 4
  store i64 %0, ptr %3, align 8, !tbaa !8
  store i32 %1, ptr %4, align 4, !tbaa !12
  %5 = load i64, ptr %3, align 8, !tbaa !8
  %6 = load i32, ptr %4, align 4, !tbaa !12
  %7 = sext i32 %6 to i64
  %8 = getelementptr inbounds [6 x i64], ptr @s_Truths6, i64 0, i64 %7
  %9 = load i64, ptr %8, align 8, !tbaa !8
  %10 = and i64 %5, %9
  %11 = load i64, ptr %3, align 8, !tbaa !8
  %12 = load i32, ptr %4, align 4, !tbaa !12
  %13 = sext i32 %12 to i64
  %14 = getelementptr inbounds [6 x i64], ptr @s_Truths6, i64 0, i64 %13
  %15 = load i64, ptr %14, align 8, !tbaa !8
  %16 = and i64 %11, %15
  %17 = load i32, ptr %4, align 4, !tbaa !12
  %18 = shl i32 1, %17
  %19 = zext i32 %18 to i64
  %20 = lshr i64 %16, %19
  %21 = or i64 %10, %20
  ret i64 %21
}

; Function Attrs: inlinehint nounwind uwtable
define internal i64 @Abc_Tt6Cofactor0(i64 noundef %0, i32 noundef %1) #2 {
  %3 = alloca i64, align 8
  %4 = alloca i32, align 4
  store i64 %0, ptr %3, align 8, !tbaa !8
  store i32 %1, ptr %4, align 4, !tbaa !12
  %5 = load i64, ptr %3, align 8, !tbaa !8
  %6 = load i32, ptr %4, align 4, !tbaa !12
  %7 = sext i32 %6 to i64
  %8 = getelementptr inbounds [6 x i64], ptr @s_Truths6Neg, i64 0, i64 %7
  %9 = load i64, ptr %8, align 8, !tbaa !8
  %10 = and i64 %5, %9
  %11 = load i64, ptr %3, align 8, !tbaa !8
  %12 = load i32, ptr %4, align 4, !tbaa !12
  %13 = sext i32 %12 to i64
  %14 = getelementptr inbounds [6 x i64], ptr @s_Truths6Neg, i64 0, i64 %13
  %15 = load i64, ptr %14, align 8, !tbaa !8
  %16 = and i64 %11, %15
  %17 = load i32, ptr %4, align 4, !tbaa !12
  %18 = shl i32 1, %17
  %19 = zext i32 %18 to i64
  %20 = shl i64 %16, %19
  %21 = or i64 %10, %20
  ret i64 %21
}

; Function Attrs: inlinehint nounwind uwtable
define internal i32 @Abc_Tt6HasVar(i64 noundef %0, i32 noundef %1) #2 {
  %3 = alloca i64, align 8
  %4 = alloca i32, align 4
  store i64 %0, ptr %3, align 8, !tbaa !8
  store i32 %1, ptr %4, align 4, !tbaa !12
  %5 = load i64, ptr %3, align 8, !tbaa !8
  %6 = load i32, ptr %4, align 4, !tbaa !12
  %7 = shl i32 1, %6
  %8 = zext i32 %7 to i64
  %9 = lshr i64 %5, %8
  %10 = load i32, ptr %4, align 4, !tbaa !12
  %11 = sext i32 %10 to i64
  %12 = getelementptr inbounds [6 x i64], ptr @s_Truths6Neg, i64 0, i64 %11
  %13 = load i64, ptr %12, align 8, !tbaa !8
  %14 = and i64 %9, %13
  %15 = load i64, ptr %3, align 8, !tbaa !8
  %16 = load i32, ptr %4, align 4, !tbaa !12
  %17 = sext i32 %16 to i64
  %18 = getelementptr inbounds [6 x i64], ptr @s_Truths6Neg, i64 0, i64 %17
  %19 = load i64, ptr %18, align 8, !tbaa !8
  %20 = and i64 %15, %19
  %21 = icmp ne i64 %14, %20
  %22 = zext i1 %21 to i32
  ret i32 %22
}

; Function Attrs: inlinehint nounwind uwtable
define internal i32 @Abc_LitNotCond(i32 noundef %0, i32 noundef %1) #2 {
  %3 = alloca i32, align 4
  %4 = alloca i32, align 4
  store i32 %0, ptr %3, align 4, !tbaa !12
  store i32 %1, ptr %4, align 4, !tbaa !12
  %5 = load i32, ptr %3, align 4, !tbaa !12
  %6 = load i32, ptr %4, align 4, !tbaa !12
  %7 = icmp sgt i32 %6, 0
  %8 = zext i1 %7 to i32
  %9 = xor i32 %5, %8
  ret i32 %9
}

; Function Attrs: nounwind uwtable
define i32 @Dau_DsdToGiaCompose_rec(ptr noundef %0, i64 noundef %1, ptr noundef %2, i32 noundef %3) #0 {
  %5 = alloca i32, align 4
  %6 = alloca ptr, align 8
  %7 = alloca i64, align 8
  %8 = alloca ptr, align 8
  %9 = alloca i32, align 4
  %10 = alloca i32, align 4
  %11 = alloca i32, align 4
  %12 = alloca i32, align 4
  store ptr %0, ptr %6, align 8, !tbaa !3
  store i64 %1, ptr %7, align 8, !tbaa !8
  store ptr %2, ptr %8, align 8, !tbaa !10
  store i32 %3, ptr %9, align 4, !tbaa !12
  call void @llvm.lifetime.start.p0(i64 4, ptr %10) #11
  call void @llvm.lifetime.start.p0(i64 4, ptr %11) #11
  %13 = load i64, ptr %7, align 8, !tbaa !8
  %14 = icmp eq i64 %13, 0
  br i1 %14, label %15, label %16

15:                                               ; preds = %4
  store i32 0, ptr %5, align 4
  store i32 1, ptr %12, align 4
  br label %83

16:                                               ; preds = %4
  %17 = load i64, ptr %7, align 8, !tbaa !8
  %18 = icmp eq i64 %17, -1
  br i1 %18, label %19, label %20

19:                                               ; preds = %16
  store i32 1, ptr %5, align 4
  store i32 1, ptr %12, align 4
  br label %83

20:                                               ; preds = %16
  %21 = load i32, ptr %9, align 4, !tbaa !12
  %22 = add nsw i32 %21, -1
  store i32 %22, ptr %9, align 4, !tbaa !12
  %23 = icmp eq i32 %22, 0
  br i1 %23, label %24, label %33

24:                                               ; preds = %20
  %25 = load ptr, ptr %8, align 8, !tbaa !10
  %26 = getelementptr inbounds i32, ptr %25, i64 0
  %27 = load i32, ptr %26, align 4, !tbaa !12
  %28 = load i64, ptr %7, align 8, !tbaa !8
  %29 = load i64, ptr @s_Truths6Neg, align 16, !tbaa !8
  %30 = icmp eq i64 %28, %29
  %31 = zext i1 %30 to i32
  %32 = call i32 @Abc_LitNotCond(i32 noundef %27, i32 noundef %31)
  store i32 %32, ptr %5, align 4
  store i32 1, ptr %12, align 4
  br label %83

33:                                               ; preds = %20
  %34 = load i64, ptr %7, align 8, !tbaa !8
  %35 = load i32, ptr %9, align 4, !tbaa !12
  %36 = call i32 @Abc_Tt6HasVar(i64 noundef %34, i32 noundef %35)
  %37 = icmp ne i32 %36, 0
  br i1 %37, label %44, label %38

38:                                               ; preds = %33
  %39 = load ptr, ptr %6, align 8, !tbaa !3
  %40 = load i64, ptr %7, align 8, !tbaa !8
  %41 = load ptr, ptr %8, align 8, !tbaa !10
  %42 = load i32, ptr %9, align 4, !tbaa !12
  %43 = call i32 @Dau_DsdToGiaCompose_rec(ptr noundef %39, i64 noundef %40, ptr noundef %41, i32 noundef %42)
  store i32 %43, ptr %5, align 4
  store i32 1, ptr %12, align 4
  br label %83

44:                                               ; preds = %33
  %45 = load ptr, ptr %6, align 8, !tbaa !3
  %46 = load i64, ptr %7, align 8, !tbaa !8
  %47 = load i32, ptr %9, align 4, !tbaa !12
  %48 = call i64 @Abc_Tt6Cofactor0(i64 noundef %46, i32 noundef %47)
  %49 = load ptr, ptr %8, align 8, !tbaa !10
  %50 = load i32, ptr %9, align 4, !tbaa !12
  %51 = call i32 @Dau_DsdToGiaCompose_rec(ptr noundef %45, i64 noundef %48, ptr noundef %49, i32 noundef %50)
  store i32 %51, ptr %10, align 4, !tbaa !12
  %52 = load ptr, ptr %6, align 8, !tbaa !3
  %53 = load i64, ptr %7, align 8, !tbaa !8
  %54 = load i32, ptr %9, align 4, !tbaa !12
  %55 = call i64 @Abc_Tt6Cofactor1(i64 noundef %53, i32 noundef %54)
  %56 = load ptr, ptr %8, align 8, !tbaa !10
  %57 = load i32, ptr %9, align 4, !tbaa !12
  %58 = call i32 @Dau_DsdToGiaCompose_rec(ptr noundef %52, i64 noundef %55, ptr noundef %56, i32 noundef %57)
  store i32 %58, ptr %11, align 4, !tbaa !12
  %59 = load ptr, ptr %6, align 8, !tbaa !3
  %60 = getelementptr inbounds nuw %struct.Gia_Man_t_, ptr %59, i32 0, i32 7
  %61 = load ptr, ptr %60, align 8, !tbaa !14
  %62 = icmp ne ptr %61, null
  br i1 %62, label %63, label %73

63:                                               ; preds = %44
  %64 = load ptr, ptr %6, align 8, !tbaa !3
  %65 = load ptr, ptr %8, align 8, !tbaa !10
  %66 = load i32, ptr %9, align 4, !tbaa !12
  %67 = sext i32 %66 to i64
  %68 = getelementptr inbounds i32, ptr %65, i64 %67
  %69 = load i32, ptr %68, align 4, !tbaa !12
  %70 = load i32, ptr %11, align 4, !tbaa !12
  %71 = load i32, ptr %10, align 4, !tbaa !12
  %72 = call i32 @Gia_ManHashMuxReal(ptr noundef %64, i32 noundef %69, i32 noundef %70, i32 noundef %71)
  store i32 %72, ptr %5, align 4
  store i32 1, ptr %12, align 4
  br label %83

73:                                               ; preds = %44
  %74 = load ptr, ptr %6, align 8, !tbaa !3
  %75 = load ptr, ptr %8, align 8, !tbaa !10
  %76 = load i32, ptr %9, align 4, !tbaa !12
  %77 = sext i32 %76 to i64
  %78 = getelementptr inbounds i32, ptr %75, i64 %77
  %79 = load i32, ptr %78, align 4, !tbaa !12
  %80 = load i32, ptr %11, align 4, !tbaa !12
  %81 = load i32, ptr %10, align 4, !tbaa !12
  %82 = call i32 @Gia_ManHashMux(ptr noundef %74, i32 noundef %79, i32 noundef %80, i32 noundef %81)
  store i32 %82, ptr %5, align 4
  store i32 1, ptr %12, align 4
  br label %83

83:                                               ; preds = %73, %63, %38, %24, %19, %15
  call void @llvm.lifetime.end.p0(i64 4, ptr %11) #11
  call void @llvm.lifetime.end.p0(i64 4, ptr %10) #11
  %84 = load i32, ptr %5, align 4
  ret i32 %84
}