; Function Attrs: nounwind uwtable
define i32 @Dau_DsdToGiaCompose_rec(ptr noundef %0, i64 noundef %1, ptr noundef %2, i32 noundef %3) local_unnamed_addr #0 {
  switch i64 %1, label %tailrecurse.preheader [
    i64 0, label %.loopexit
    i64 -1, label %40
  ]

tailrecurse.preheader:                            ; preds = %4
  %5 = sext i32 %3 to i64
  br label %tailrecurse

tailrecurse:                                      ; preds = %tailrecurse.preheader, %12
  %indvars.iv = phi i64 [ %5, %tailrecurse.preheader ], [ %indvars.iv.next, %12 ]
  %indvars.iv.next = add nsw i64 %indvars.iv, -1
  %6 = icmp eq i64 %indvars.iv.next, 0
  br i1 %6, label %7, label %12

7:                                                ; preds = %tailrecurse
  %8 = load i32, ptr %2, align 4, !tbaa !3
  %9 = icmp eq i64 %1, 6148914691236517205
  %10 = zext i1 %9 to i32
  %11 = xor i32 %8, %10
  br label %40

12:                                               ; preds = %tailrecurse
  %13 = trunc nsw i64 %indvars.iv.next to i32
  %14 = shl nuw i32 1, %13
  %15 = zext nneg i32 %14 to i64
  %16 = lshr i64 %1, %15
  %17 = getelementptr inbounds [6 x i64], ptr @s_Truths6Neg, i64 0, i64 %indvars.iv.next
  %18 = load i64, ptr %17, align 8, !tbaa !7
  %19 = xor i64 %16, %1
  %20 = and i64 %18, %19
  %.not35 = icmp eq i64 %20, 0
  br i1 %.not35, label %tailrecurse, label %21

21:                                               ; preds = %12
  %22 = and i64 %18, %1
  %23 = shl i64 %22, %15
  %24 = or i64 %23, %22
  %25 = tail call i32 @Dau_DsdToGiaCompose_rec(ptr noundef %0, i64 noundef %24, ptr noundef %2, i32 noundef %13)
  %26 = getelementptr inbounds [6 x i64], ptr @s_Truths6, i64 0, i64 %indvars.iv.next
  %27 = load i64, ptr %26, align 8, !tbaa !7
  %28 = and i64 %27, %1
  %29 = lshr i64 %28, %15
  %30 = or i64 %29, %28
  %31 = tail call i32 @Dau_DsdToGiaCompose_rec(ptr noundef %0, i64 noundef %30, ptr noundef %2, i32 noundef %13)
  %32 = getelementptr inbounds nuw i8, ptr %0, i64 40
  %33 = load ptr, ptr %32, align 8, !tbaa !9
  %.not34 = icmp eq ptr %33, null
  %34 = getelementptr inbounds i32, ptr %2, i64 %indvars.iv.next
  %35 = load i32, ptr %34, align 4, !tbaa !3
  br i1 %.not34, label %38, label %36

36:                                               ; preds = %21
  %37 = tail call i32 @Gia_ManHashMuxReal(ptr noundef nonnull %0, i32 noundef %35, i32 noundef %31, i32 noundef %25) #19
  br label %40

38:                                               ; preds = %21
  %39 = tail call i32 @Gia_ManHashMux(ptr noundef nonnull %0, i32 noundef %35, i32 noundef %31, i32 noundef %25) #19
  br label %40

.loopexit:                                        ; preds = %4
  br label %40

40:                                               ; preds = %4, %.loopexit, %38, %36, %7
  %.0 = phi i32 [ %11, %7 ], [ %37, %36 ], [ %39, %38 ], [ 0, %.loopexit ], [ 1, %4 ]
  ret i32 %.0
}